target datalayout = "e-m:e-p270:32:32-p271:32:32-p272:64:64-i64:64-i128:128-f80:128-n8:16:32:64-S128"
target triple = "x86_64-pc-linux-gnu"

%"class.clang::SourceLocation" = type { i32 }
%"class.clang::Stmt" = type { %union.anon.477 }
%union.anon.477 = type { %"class.clang::Stmt::PseudoObjectExprBitfields" }
%"class.clang::Stmt::PseudoObjectExprBitfields" = type { i64 }
%"class.llvm::iterator_range.801" = type { %"class.clang::OMPExecutableDirective::used_clauses_child_iterator", %"class.clang::OMPExecutableDirective::used_clauses_child_iterator" }
%"class.clang::OMPExecutableDirective::used_clauses_child_iterator" = type { %"class.llvm::iterator_adaptor_base", ptr, %"struct.clang::StmtIterator", %"struct.clang::StmtIterator" }
%"class.llvm::iterator_adaptor_base" = type { ptr }
%"struct.clang::StmtIterator" = type { %"class.clang::StmtIteratorImpl" }
%"class.clang::StmtIteratorImpl" = type { %"class.clang::StmtIteratorBase" }
%"class.clang::StmtIteratorBase" = type { %union.anon.802, i64, ptr }
%union.anon.802 = type { ptr }
%"class.llvm::ArrayRef.803" = type { ptr, i64 }
%"class.llvm::MutableArrayRef.805" = type { %"class.llvm::ArrayRef.803" }
%"class.clang::OMPExecutableDirective" = type { %"class.clang::Stmt", i32, %"class.clang::SourceLocation", %"class.clang::SourceLocation", ptr }
%"class.clang::OMPChildren" = type <{ i32, i32, i8, [7 x i8] }>

; Function Attrs: mustprogress nounwind uwtable
define linkonce_odr hidden noundef i64 @_ZN4llvm15TrailingObjectsIN5clang11OMPChildrenEJPNS1_9OMPClauseEPNS1_4StmtEEE22callNumTrailingObjectsEPKS2_NS_25trailing_objects_internal19TrailingObjectsBase13OverloadTokenIS2_EE(ptr noundef %0) #0 comdat align 2 {
  %2 = alloca ptr, align 8
  store ptr %0, ptr %2, align 8
  ret i64 1
}

; Function Attrs: mustprogress nounwind uwtable
define linkonce_odr hidden noundef ptr @_ZN4llvm15TrailingObjectsIN5clang11OMPChildrenEJPNS1_9OMPClauseEPNS1_4StmtEEE22getTrailingObjectsImplEPS2_NS_25trailing_objects_internal19TrailingObjectsBase13OverloadTokenIS2_EE(ptr noundef %0) #0 comdat align 2 {
  %2 = alloca ptr, align 8
  store ptr %0, ptr %2, align 8
  %3 = load ptr, ptr %2, align 8
  ret ptr %3
}

; Function Attrs: mustprogress nounwind uwtable
define linkonce_odr hidden noundef ptr @_ZN4llvm25trailing_objects_internal19TrailingObjectsImplILi8EN5clang11OMPChildrenENS_15TrailingObjectsIS3_JPNS2_9OMPClauseEPNS2_4StmtEEEES3_JS6_S8_EE22getTrailingObjectsImplEPS3_NS0_19TrailingObjectsBase13OverloadTokenIS6_EE(ptr noundef %0) #0 comdat align 2 {
  %2 = alloca ptr, align 8
  %3 = alloca ptr, align 8
  store ptr %0, ptr %2, align 8
  %4 = load ptr, ptr %2, align 8
  %5 = call noundef ptr @_ZN4llvm15TrailingObjectsIN5clang11OMPChildrenEJPNS1_9OMPClauseEPNS1_4StmtEEE22getTrailingObjectsImplEPS2_NS_25trailing_objects_internal19TrailingObjectsBase13OverloadTokenIS2_EE(ptr noundef %4)
  %6 = load ptr, ptr %2, align 8
  %7 = call noundef i64 @_ZN4llvm15TrailingObjectsIN5clang11OMPChildrenEJPNS1_9OMPClauseEPNS1_4StmtEEE22callNumTrailingObjectsEPKS2_NS_25trailing_objects_internal19TrailingObjectsBase13OverloadTokenIS2_EE(ptr noundef %6)
  %8 = getelementptr inbounds %"class.clang::OMPChildren", ptr %5, i64 %7
  store ptr %8, ptr %3, align 8
  %9 = load ptr, ptr %3, align 8
  ret ptr %9
}

; Function Attrs: mustprogress nounwind uwtable
define linkonce_odr hidden void @_ZN4llvm15TrailingObjectsIN5clang11OMPChildrenEJPNS1_9OMPClauseEPNS1_4StmtEEE31verifyTrailingObjectsAssertionsEv() #0 comdat align 2 {
  ret void
}

; Function Attrs: mustprogress nounwind uwtable
define linkonce_odr hidden noundef zeroext i1 @_ZNK5clang16StmtIteratorBase6inStmtEv(ptr noundef nonnull align 8 dereferenceable(24) %0) #0 comdat align 2 {
  %2 = alloca ptr, align 8
  store ptr %0, ptr %2, align 8
  %3 = load ptr, ptr %2, align 8
  %4 = getelementptr inbounds nuw %"class.clang::StmtIteratorBase", ptr %3, i32 0, i32 1
  %5 = load i64, ptr %4, align 8
  %6 = and i64 %5, 3
  %7 = icmp eq i64 %6, 0
  ret i1 %7
}

; Function Attrs: mustprogress nounwind uwtable
define linkonce_odr hidden void @_ZN4llvm15MutableArrayRefIPN5clang9OMPClauseEEC2EPS3_m(ptr noundef nonnull align 8 dereferenceable(16) %0, ptr noundef %1, i64 noundef %2) unnamed_addr #0 comdat align 2 {
  %4 = alloca ptr, align 8
  %5 = alloca ptr, align 8
  %6 = alloca i64, align 8
  store ptr %0, ptr %4, align 8
  store ptr %1, ptr %5, align 8
  store i64 %2, ptr %6, align 8
  %7 = load ptr, ptr %4, align 8
  %8 = load ptr, ptr %5, align 8
  %9 = load i64, ptr %6, align 8
  call void @_ZN4llvm8ArrayRefIPN5clang9OMPClauseEEC2EPKS3_m(ptr noundef nonnull align 8 dereferenceable(16) %7, ptr noundef %8, i64 noundef %9)
  ret void
}

; Function Attrs: mustprogress nounwind uwtable
define linkonce_odr hidden noundef ptr @_ZN4llvm15TrailingObjectsIN5clang11OMPChildrenEJPNS1_9OMPClauseEPNS1_4StmtEEE18getTrailingObjectsIS4_EEPT_v(ptr noundef nonnull align 8 dereferenceable(8) %0) #0 comdat align 2 {
  %2 = alloca ptr, align 8
  store ptr %0, ptr %2, align 8
  %3 = load ptr, ptr %2, align 8
  call void @_ZN4llvm15TrailingObjectsIN5clang11OMPChildrenEJPNS1_9OMPClauseEPNS1_4StmtEEE31verifyTrailingObjectsAssertionsEv()
  %4 = call noundef ptr @_ZN4llvm25trailing_objects_internal19TrailingObjectsImplILi8EN5clang11OMPChildrenENS_15TrailingObjectsIS3_JPNS2_9OMPClauseEPNS2_4StmtEEEES3_JS6_S8_EE22getTrailingObjectsImplEPS3_NS0_19TrailingObjectsBase13OverloadTokenIS6_EE(ptr noundef %3)
  ret ptr %4
}

; Function Attrs: mustprogress nounwind uwtable
define linkonce_odr hidden noundef nonnull align 8 dereferenceable(8) ptr @_ZNK5clang16StmtIteratorImplINS_12StmtIteratorERPNS_4StmtEEdeEv(ptr noundef nonnull align 8 dereferenceable(24) %0) #0 comdat align 2 {
  %2 = alloca ptr, align 8
  store ptr %0, ptr %2, align 8
  %3 = load ptr, ptr %2, align 8
  %4 = call noundef zeroext i1 @_ZNK5clang16StmtIteratorBase6inStmtEv(ptr noundef nonnull align 8 dereferenceable(24) %3)
  br i1 %4, label %5, label %8

5:                                                ; preds = %1
  %6 = getelementptr inbounds nuw %"class.clang::StmtIteratorBase", ptr %3, i32 0, i32 0
  %7 = load ptr, ptr %6, align 8
  br label %10

8:                                                ; preds = %1
  %9 = call noundef nonnull align 8 dereferenceable(8) ptr @_ZNK5clang16StmtIteratorBase11GetDeclExprEv(ptr noundef nonnull align 8 dereferenceable(24) %3)
  br label %10

10:                                               ; preds = %8, %5
  %11 = phi ptr [ %7, %5 ], [ %9, %8 ]
  ret ptr %11
}

; Function Attrs: mustprogress nounwind uwtable
define linkonce_odr hidden noundef zeroext i1 @_ZN4llvmeqERKNS_21iterator_adaptor_baseIN5clang22OMPExecutableDirective27used_clauses_child_iteratorEPKPNS1_9OMPClauseESt20forward_iterator_tagPNS1_4StmtElSA_SA_EESD_(ptr noundef nonnull align 8 dereferenceable(8) %0, ptr noundef nonnull align 8 dereferenceable(8) %1) #0 comdat {
  %3 = alloca ptr, align 8
  %4 = alloca ptr, align 8
  store ptr %0, ptr %3, align 8
  store ptr %1, ptr %4, align 8
  %5 = load ptr, ptr %3, align 8
  %6 = getelementptr inbounds nuw %"class.llvm::iterator_adaptor_base", ptr %5, i32 0, i32 0
  %7 = load ptr, ptr %6, align 8
  %8 = load ptr, ptr %4, align 8
  %9 = getelementptr inbounds nuw %"class.llvm::iterator_adaptor_base", ptr %8, i32 0, i32 0
  %10 = load ptr, ptr %9, align 8
  %11 = icmp eq ptr %7, %10
  ret i1 %11
}

; Function Attrs: mustprogress nounwind uwtable
define linkonce_odr hidden void @_ZN4llvm14iterator_rangeIN5clang22OMPExecutableDirective27used_clauses_child_iteratorEEC2ES3_S3_(ptr noundef nonnull align 8 dereferenceable(128) %0, ptr noundef byval(%"class.clang::OMPExecutableDirective::used_clauses_child_iterator") align 8 %1, ptr noundef byval(%"class.clang::OMPExecutableDirective::used_clauses_child_iterator") align 8 %2) unnamed_addr #0 comdat align 2 {
  %4 = alloca ptr, align 8
  store ptr %0, ptr %4, align 8
  %5 = load ptr, ptr %4, align 8
  %6 = getelementptr inbounds nuw %"class.llvm::iterator_range.801", ptr %5, i32 0, i32 0
  call void @llvm.memcpy.p0.p0.i64(ptr align 8 %6, ptr align 8 %1, i64 64, i1 false)
  %7 = getelementptr inbounds nuw %"class.llvm::iterator_range.801", ptr %5, i32 0, i32 1
  call void @llvm.memcpy.p0.p0.i64(ptr align 8 %7, ptr align 8 %2, i64 64, i1 false)
  ret void
}

; Function Attrs: mustprogress nounwind uwtable
define linkonce_odr hidden void @_ZN4llvm8ArrayRefIPN5clang9OMPClauseEEC2EPKS3_m(ptr noundef nonnull align 8 dereferenceable(16) %0, ptr noundef %1, i64 noundef %2) unnamed_addr #0 comdat align 2 {
  %4 = alloca ptr, align 8
  %5 = alloca ptr, align 8
  %6 = alloca i64, align 8
  store ptr %0, ptr %4, align 8
  store ptr %1, ptr %5, align 8
  store i64 %2, ptr %6, align 8
  %7 = load ptr, ptr %4, align 8
  %8 = getelementptr inbounds nuw %"class.llvm::ArrayRef.803", ptr %7, i32 0, i32 0
  %9 = load ptr, ptr %5, align 8
  store ptr %9, ptr %8, align 8
  %10 = getelementptr inbounds nuw %"class.llvm::ArrayRef.803", ptr %7, i32 0, i32 1
  %11 = load i64, ptr %6, align 8
  store i64 %11, ptr %10, align 8
  ret void
}

; Function Attrs: mustprogress nounwind uwtable
define linkonce_odr hidden noundef ptr @_ZNK4llvm8ArrayRefIPN5clang9OMPClauseEE3endEv(ptr noundef nonnull align 8 dereferenceable(16) %0) #0 comdat align 2 {
  %2 = alloca ptr, align 8
  store ptr %0, ptr %2, align 8
  %3 = load ptr, ptr %2, align 8
  %4 = getelementptr inbounds nuw %"class.llvm::ArrayRef.803", ptr %3, i32 0, i32 0
  %5 = load ptr, ptr %4, align 8
  %6 = getelementptr inbounds nuw %"class.llvm::ArrayRef.803", ptr %3, i32 0, i32 1
  %7 = load i64, ptr %6, align 8
  %8 = getelementptr inbounds ptr, ptr %5, i64 %7
  ret ptr %8
}

; Function Attrs: mustprogress nounwind uwtable
define linkonce_odr hidden { ptr, i64 } @_ZN5clang11OMPChildren10getClausesEv(ptr noundef nonnull align 8 dereferenceable(16) %0) #0 comdat align 2 {
  %2 = alloca %"class.llvm::MutableArrayRef.805", align 8
  %3 = alloca ptr, align 8
  store ptr %0, ptr %3, align 8
  %4 = load ptr, ptr %3, align 8
  %5 = call noundef ptr @_ZN4llvm15TrailingObjectsIN5clang11OMPChildrenEJPNS1_9OMPClauseEPNS1_4StmtEEE18getTrailingObjectsIS4_EEPT_v(ptr noundef nonnull align 8 dereferenceable(8) %4)
  %6 = getelementptr inbounds nuw %"class.clang::OMPChildren", ptr %4, i32 0, i32 0
  %7 = load i32, ptr %6, align 8
  %8 = zext i32 %7 to i64
  call void @_ZN4llvm15MutableArrayRefIPN5clang9OMPClauseEEC2EPS3_m(ptr noundef nonnull align 8 dereferenceable(16) %2, ptr noundef %5, i64 noundef %8)
  %9 = getelementptr inbounds nuw %"class.llvm::MutableArrayRef.805", ptr %2, i32 0, i32 0
  %10 = load { ptr, i64 }, ptr %9, align 8
  ret { ptr, i64 } %10
}

; Function Attrs: mustprogress nounwind uwtable
define linkonce_odr hidden void @_ZN4llvm8ArrayRefIPN5clang9OMPClauseEEC2ESt9nullopt_t(ptr noundef nonnull align 8 dereferenceable(16) %0) unnamed_addr #0 comdat align 2 {
  %2 = alloca ptr, align 8
  store ptr %0, ptr %2, align 8
  %3 = load ptr, ptr %2, align 8
  %4 = getelementptr inbounds nuw %"class.llvm::ArrayRef.803", ptr %3, i32 0, i32 0
  store ptr null, ptr %4, align 8
  %5 = getelementptr inbounds nuw %"class.llvm::ArrayRef.803", ptr %3, i32 0, i32 1
  store i64 0, ptr %5, align 8
  ret void
}

; Function Attrs: mustprogress nounwind uwtable
define linkonce_odr hidden noundef ptr @_ZNK5clang22OMPExecutableDirective27used_clauses_child_iteratordeEv(ptr noundef nonnull align 8 dereferenceable(64) %0) #0 comdat align 2 {
  %2 = alloca ptr, align 8
  store ptr %0, ptr %2, align 8
  %3 = load ptr, ptr %2, align 8
  %4 = getelementptr inbounds nuw %"class.clang::OMPExecutableDirective::used_clauses_child_iterator", ptr %3, i32 0, i32 2
  %5 = call noundef nonnull align 8 dereferenceable(8) ptr @_ZNK5clang16StmtIteratorImplINS_12StmtIteratorERPNS_4StmtEEdeEv(ptr noundef nonnull align 8 dereferenceable(24) %4)
  %6 = load ptr, ptr %5, align 8
  ret ptr %6
}

; Function Attrs: mustprogress nounwind uwtable
define linkonce_odr hidden noundef zeroext i1 @_ZNK4llvm20iterator_facade_baseIN5clang22OMPExecutableDirective27used_clauses_child_iteratorESt20forward_iterator_tagPNS1_4StmtElS6_S6_EneERKS3_(ptr noundef nonnull align 1 dereferenceable(1) %0, ptr noundef nonnull align 8 dereferenceable(64) %1) #0 comdat align 2 {
  %3 = alloca ptr, align 8
  %4 = alloca ptr, align 8
  store ptr %0, ptr %3, align 8
  store ptr %1, ptr %4, align 8
  %5 = load ptr, ptr %3, align 8
  %6 = load ptr, ptr %4, align 8
  %7 = call noundef zeroext i1 @_ZN4llvmeqERKNS_21iterator_adaptor_baseIN5clang22OMPExecutableDirective27used_clauses_child_iteratorEPKPNS1_9OMPClauseESt20forward_iterator_tagPNS1_4StmtElSA_SA_EESD_(ptr noundef nonnull align 8 dereferenceable(8) %5, ptr noundef nonnull align 8 dereferenceable(8) %6)
  %8 = xor i1 %7, true
  ret i1 %8
}

; Function Attrs: mustprogress nounwind uwtable
define linkonce_odr hidden void @_ZNK4llvm14iterator_rangeIN5clang22OMPExecutableDirective27used_clauses_child_iteratorEE3endEv(ptr dead_on_unwind noalias writable sret(%"class.clang::OMPExecutableDirective::used_clauses_child_iterator") align 8 %0, ptr noundef nonnull align 8 dereferenceable(128) %1) #0 comdat align 2 {
  %3 = alloca ptr, align 8
  store ptr %1, ptr %3, align 8
  %4 = load ptr, ptr %3, align 8
  %5 = getelementptr inbounds nuw %"class.llvm::iterator_range.801", ptr %4, i32 0, i32 1
  call void @llvm.memcpy.p0.p0.i64(ptr align 8 %0, ptr align 8 %5, i64 64, i1 false)
  ret void
}

; Function Attrs: mustprogress nounwind uwtable
define linkonce_odr hidden void @_ZNK4llvm14iterator_rangeIN5clang22OMPExecutableDirective27used_clauses_child_iteratorEE5beginEv(ptr dead_on_unwind noalias writable sret(%"class.clang::OMPExecutableDirective::used_clauses_child_iterator") align 8 %0, ptr noundef nonnull align 8 dereferenceable(128) %1) #0 comdat align 2 {
  %3 = alloca ptr, align 8
  store ptr %1, ptr %3, align 8
  %4 = load ptr, ptr %3, align 8
  %5 = getelementptr inbounds nuw %"class.llvm::iterator_range.801", ptr %4, i32 0, i32 0
  call void @llvm.memcpy.p0.p0.i64(ptr align 8 %0, ptr align 8 %5, i64 64, i1 false)
  ret void
}

; Function Attrs: mustprogress nounwind uwtable
define linkonce_odr hidden void @_ZN5clang22OMPExecutableDirective21used_clauses_childrenEN4llvm8ArrayRefIPNS_9OMPClauseEEE(ptr dead_on_unwind noalias writable sret(%"class.llvm::iterator_range.801") align 8 %0, ptr %1, i64 %2) #0 comdat align 2 {
  %4 = alloca %"class.llvm::ArrayRef.803", align 8
  %5 = alloca %"class.clang::OMPExecutableDirective::used_clauses_child_iterator", align 8
  %6 = alloca %"class.llvm::ArrayRef.803", align 8
  %7 = alloca %"class.clang::OMPExecutableDirective::used_clauses_child_iterator", align 8
  %8 = alloca %"class.llvm::ArrayRef.803", align 8
  %9 = getelementptr inbounds nuw { ptr, i64 }, ptr %4, i32 0, i32 0
  store ptr %1, ptr %9, align 8
  %10 = getelementptr inbounds nuw { ptr, i64 }, ptr %4, i32 0, i32 1
  store i64 %2, ptr %10, align 8
  call void @llvm.memcpy.p0.p0.i64(ptr align 8 %6, ptr align 8 %4, i64 16, i1 false)
  %11 = getelementptr inbounds nuw { ptr, i64 }, ptr %6, i32 0, i32 0
  %12 = load ptr, ptr %11, align 8
  %13 = getelementptr inbounds nuw { ptr, i64 }, ptr %6, i32 0, i32 1
  %14 = load i64, ptr %13, align 8
  call void @_ZN5clang22OMPExecutableDirective27used_clauses_child_iteratorC2EN4llvm8ArrayRefIPNS_9OMPClauseEEE(ptr noundef nonnull align 8 dereferenceable(64) %5, ptr %12, i64 %14)
  %15 = call noundef ptr @_ZNK4llvm8ArrayRefIPN5clang9OMPClauseEE3endEv(ptr noundef nonnull align 8 dereferenceable(16) %4)
  call void @_ZN4llvm8ArrayRefIPN5clang9OMPClauseEEC2EPKS3_m(ptr noundef nonnull align 8 dereferenceable(16) %8, ptr noundef %15, i64 noundef 0)
  %16 = getelementptr inbounds nuw { ptr, i64 }, ptr %8, i32 0, i32 0
  %17 = load ptr, ptr %16, align 8
  %18 = getelementptr inbounds nuw { ptr, i64 }, ptr %8, i32 0, i32 1
  %19 = load i64, ptr %18, align 8
  call void @_ZN5clang22OMPExecutableDirective27used_clauses_child_iteratorC2EN4llvm8ArrayRefIPNS_9OMPClauseEEE(ptr noundef nonnull align 8 dereferenceable(64) %7, ptr %17, i64 %19)
  call void @_ZN4llvm14iterator_rangeIN5clang22OMPExecutableDirective27used_clauses_child_iteratorEEC2ES3_S3_(ptr noundef nonnull align 8 dereferenceable(128) %0, ptr noundef byval(%"class.clang::OMPExecutableDirective::used_clauses_child_iterator") align 8 %5, ptr noundef byval(%"class.clang::OMPExecutableDirective::used_clauses_child_iterator") align 8 %7)
  ret void
}

; Function Attrs: mustprogress nounwind uwtable
define linkonce_odr hidden { ptr, i64 } @_ZNK5clang22OMPExecutableDirective7clausesEv(ptr noundef nonnull align 8 dereferenceable(32) %0) #0 comdat align 2 {
  %2 = alloca %"class.llvm::ArrayRef.803", align 8
  %3 = alloca ptr, align 8
  %4 = alloca %"class.llvm::MutableArrayRef.805", align 8
  store ptr %0, ptr %3, align 8
  %5 = load ptr, ptr %3, align 8
  %6 = getelementptr inbounds nuw %"class.clang::OMPExecutableDirective", ptr %5, i32 0, i32 4
  %7 = load ptr, ptr %6, align 8
  %8 = icmp ne ptr %7, null
  br i1 %8, label %10, label %9

9:                                                ; preds = %1
  call void @_ZN4llvm8ArrayRefIPN5clang9OMPClauseEEC2ESt9nullopt_t(ptr noundef nonnull align 8 dereferenceable(16) %2)
  br label %19

10:                                               ; preds = %1
  %11 = getelementptr inbounds nuw %"class.clang::OMPExecutableDirective", ptr %5, i32 0, i32 4
  %12 = load ptr, ptr %11, align 8
  %13 = call { ptr, i64 } @_ZN5clang11OMPChildren10getClausesEv(ptr noundef nonnull align 8 dereferenceable(16) %12)
  %14 = getelementptr inbounds nuw %"class.llvm::MutableArrayRef.805", ptr %4, i32 0, i32 0
  %15 = getelementptr inbounds nuw { ptr, i64 }, ptr %14, i32 0, i32 0
  %16 = extractvalue { ptr, i64 } %13, 0
  store ptr %16, ptr %15, align 8
  %17 = getelementptr inbounds nuw { ptr, i64 }, ptr %14, i32 0, i32 1
  %18 = extractvalue { ptr, i64 } %13, 1
  store i64 %18, ptr %17, align 8
  call void @llvm.memcpy.p0.p0.i64(ptr align 8 %2, ptr align 8 %4, i64 16, i1 false)
  br label %19

19:                                               ; preds = %10, %9
  %20 = load { ptr, i64 }, ptr %2, align 8
  ret { ptr, i64 } %20
}

; Function Attrs: mustprogress nounwind uwtable
define internal void @_ZN12_GLOBAL__N_117TransferFunctions27VisitOMPExecutableDirectiveEPN5clang22OMPExecutableDirectiveE(ptr noundef nonnull align 8 dereferenceable(80) %0, ptr noundef %1) #0 align 2 {
  %3 = alloca ptr, align 8
  %4 = alloca ptr, align 8
  %5 = alloca ptr, align 8
  %6 = alloca %"class.llvm::iterator_range.801", align 8
  %7 = alloca %"class.llvm::ArrayRef.803", align 8
  %8 = alloca %"class.clang::OMPExecutableDirective::used_clauses_child_iterator", align 8
  %9 = alloca %"class.clang::OMPExecutableDirective::used_clauses_child_iterator", align 8
  %10 = alloca ptr, align 8
  store ptr %0, ptr %3, align 8
  store ptr %1, ptr %4, align 8
  %11 = load ptr, ptr %3, align 8
  %12 = load ptr, ptr %4, align 8
  %13 = call { ptr, i64 } @_ZNK5clang22OMPExecutableDirective7clausesEv(ptr noundef nonnull align 8 dereferenceable(32) %12)
  %14 = getelementptr inbounds nuw { ptr, i64 }, ptr %7, i32 0, i32 0
  %15 = extractvalue { ptr, i64 } %13, 0
  store ptr %15, ptr %14, align 8
  %16 = getelementptr inbounds nuw { ptr, i64 }, ptr %7, i32 0, i32 1
  %17 = extractvalue { ptr, i64 } %13, 1
  store i64 %17, ptr %16, align 8
  %18 = getelementptr inbounds nuw { ptr, i64 }, ptr %7, i32 0, i32 0
  %19 = load ptr, ptr %18, align 8
  %20 = getelementptr inbounds nuw { ptr, i64 }, ptr %7, i32 0, i32 1
  %21 = load i64, ptr %20, align 8
  call void @_ZN5clang22OMPExecutableDirective21used_clauses_childrenEN4llvm8ArrayRefIPNS_9OMPClauseEEE(ptr dead_on_unwind writable sret(%"class.llvm::iterator_range.801") align 8 %6, ptr %19, i64 %21)
  store ptr %6, ptr %5, align 8
  %22 = load ptr, ptr %5, align 8
  call void @_ZNK4llvm14iterator_rangeIN5clang22OMPExecutableDirective27used_clauses_child_iteratorEE5beginEv(ptr dead_on_unwind writable sret(%"class.clang::OMPExecutableDirective::used_clauses_child_iterator") align 8 %8, ptr noundef nonnull align 8 dereferenceable(128) %22)
  %23 = load ptr, ptr %5, align 8
  call void @_ZNK4llvm14iterator_rangeIN5clang22OMPExecutableDirective27used_clauses_child_iteratorEE3endEv(ptr dead_on_unwind writable sret(%"class.clang::OMPExecutableDirective::used_clauses_child_iterator") align 8 %9, ptr noundef nonnull align 8 dereferenceable(128) %23)
  br label %24

24:                                               ; preds = %29, %2
  %25 = call noundef zeroext i1 @_ZNK4llvm20iterator_facade_baseIN5clang22OMPExecutableDirective27used_clauses_child_iteratorESt20forward_iterator_tagPNS1_4StmtElS6_S6_EneERKS3_(ptr noundef nonnull align 1 dereferenceable(1) %8, ptr noundef nonnull align 8 dereferenceable(64) %9)
  br i1 %25, label %26, label %31

26:                                               ; preds = %24
  %27 = call noundef ptr @_ZNK5clang22OMPExecutableDirective27used_clauses_child_iteratordeEv(ptr noundef nonnull align 8 dereferenceable(64) %8)
  store ptr %27, ptr %10, align 8
  %28 = load ptr, ptr %10, align 8
  call void @_ZN5clang15StmtVisitorBaseISt11add_pointerN12_GLOBAL__N_117TransferFunctionsEvJEE5VisitEPNS_4StmtE(ptr noundef nonnull align 1 dereferenceable(1) %11, ptr noundef %28)
  br label %29

29:                                               ; preds = %26
  %30 = call noundef nonnull align 8 dereferenceable(64) ptr @_ZN5clang22OMPExecutableDirective27used_clauses_child_iteratorppEv(ptr noundef nonnull align 8 dereferenceable(64) %8)
  br label %24

31:                                               ; preds = %24
  %32 = load ptr, ptr %4, align 8
  %33 = call noundef zeroext i1 @_ZNK5clang22OMPExecutableDirective21isStandaloneDirectiveEv(ptr noundef nonnull align 8 dereferenceable(32) %32)
  br i1 %33, label %37, label %34

34:                                               ; preds = %31
  %35 = load ptr, ptr %4, align 8
  %36 = call noundef ptr @_ZN5clang22OMPExecutableDirective18getStructuredBlockEv(ptr noundef nonnull align 8 dereferenceable(32) %35)
  call void @_ZN5clang15StmtVisitorBaseISt11add_pointerN12_GLOBAL__N_117TransferFunctionsEvJEE5VisitEPNS_4StmtE(ptr noundef nonnull align 1 dereferenceable(1) %11, ptr noundef %36)
  br label %37

37:                                               ; preds = %34, %31
  ret void
}