; Function Attrs: mustprogress nounwind uwtable
define internal fastcc void @_ZN12_GLOBAL__N_117TransferFunctions27VisitOMPExecutableDirectiveEPN5clang22OMPExecutableDirectiveE(ptr noundef nonnull align 8 dereferenceable(80) %0, ptr noundef %1) unnamed_addr #0 align 2 {
  %.sroa.07 = alloca %"class.clang::OMPExecutableDirective::used_clauses_child_iterator", align 8
  %3 = alloca %"class.clang::OMPExecutableDirective::used_clauses_child_iterator", align 8
  %4 = getelementptr inbounds nuw i8, ptr %1, i64 24
  %5 = load ptr, ptr %4, align 8
  %.not.i = icmp eq ptr %5, null
  br i1 %.not.i, label %_ZNK5clang22OMPExecutableDirective7clausesEv.exit, label %6

6:                                                ; preds = %2
  %7 = getelementptr inbounds nuw i8, ptr %5, i64 16
  %8 = load i32, ptr %5, align 8
  %9 = zext i32 %8 to i64
  br label %_ZNK5clang22OMPExecutableDirective7clausesEv.exit

_ZNK5clang22OMPExecutableDirective7clausesEv.exit: ; preds = %2, %6
  %.sroa.0.0.i = phi ptr [ %7, %6 ], [ null, %2 ]
  %.sroa.3.0.i = phi i64 [ %9, %6 ], [ 0, %2 ]
  call void @_ZN5clang22OMPExecutableDirective27used_clauses_child_iteratorC2EN4llvm8ArrayRefIPNS_9OMPClauseEEE(ptr noundef nonnull align 8 dereferenceable(64) %.sroa.07, ptr %.sroa.0.0.i, i64 %.sroa.3.0.i)
  %10 = getelementptr inbounds nuw ptr, ptr %.sroa.0.0.i, i64 %.sroa.3.0.i
  call void @llvm.memcpy.p0.p0.i64(ptr noundef nonnull align 8 dereferenceable(64) %3, ptr noundef nonnull align 8 dereferenceable(64) %.sroa.07, i64 64, i1 false)
  %11 = load ptr, ptr %3, align 8
  %.not10 = icmp eq ptr %11, %10
  br i1 %.not10, label %._crit_edge, label %.lr.ph

.lr.ph:                                           ; preds = %_ZNK5clang22OMPExecutableDirective7clausesEv.exit
  %12 = getelementptr inbounds nuw i8, ptr %3, i64 16
  %13 = getelementptr inbounds nuw i8, ptr %3, i64 24
  br label %14

14:                                               ; preds = %.lr.ph, %_ZNK5clang22OMPExecutableDirective27used_clauses_child_iteratordeEv.exit
  %15 = load i64, ptr %13, align 8
  %16 = and i64 %15, 3
  %17 = icmp eq i64 %16, 0
  br i1 %17, label %18, label %20

18:                                               ; preds = %14
  %19 = load ptr, ptr %12, align 8
  br label %_ZNK5clang22OMPExecutableDirective27used_clauses_child_iteratordeEv.exit

20:                                               ; preds = %14
  %21 = call noundef nonnull align 8 dereferenceable(8) ptr @_ZNK5clang16StmtIteratorBase11GetDeclExprEv(ptr noundef nonnull align 8 dereferenceable(24) %12) #15
  br label %_ZNK5clang22OMPExecutableDirective27used_clauses_child_iteratordeEv.exit

_ZNK5clang22OMPExecutableDirective27used_clauses_child_iteratordeEv.exit: ; preds = %18, %20
  %22 = phi ptr [ %19, %18 ], [ %21, %20 ]
  %23 = load ptr, ptr %22, align 8
  call fastcc void @_ZN5clang15StmtVisitorBaseISt11add_pointerN12_GLOBAL__N_117TransferFunctionsEvJEE5VisitEPNS_4StmtE(ptr noundef nonnull align 1 dereferenceable(1) %0, ptr noundef %23)
  %24 = call noundef nonnull align 8 dereferenceable(64) ptr @_ZN5clang22OMPExecutableDirective27used_clauses_child_iteratorppEv(ptr noundef nonnull align 8 dereferenceable(64) %3)
  %25 = load ptr, ptr %3, align 8
  %.not = icmp eq ptr %25, %10
  br i1 %.not, label %._crit_edge, label %14

._crit_edge:                                      ; preds = %_ZNK5clang22OMPExecutableDirective27used_clauses_child_iteratordeEv.exit, %_ZNK5clang22OMPExecutableDirective7clausesEv.exit
  %26 = call noundef zeroext i1 @_ZNK5clang22OMPExecutableDirective21isStandaloneDirectiveEv(ptr noundef nonnull align 8 dereferenceable(32) %1) #15
  br i1 %26, label %29, label %27

27:                                               ; preds = %._crit_edge
  %28 = call noundef ptr @_ZN5clang22OMPExecutableDirective18getStructuredBlockEv(ptr noundef nonnull align 8 dereferenceable(32) %1) #15
  call fastcc void @_ZN5clang15StmtVisitorBaseISt11add_pointerN12_GLOBAL__N_117TransferFunctionsEvJEE5VisitEPNS_4StmtE(ptr noundef nonnull align 1 dereferenceable(1) %0, ptr noundef %28)
  br label %29

29:                                               ; preds = %27, %._crit_edge
  ret void
}